; Function Attrs: nounwind uwtable
define void @PMIx_Geometry_free(ptr noundef captures(address_is_null) %0, i64 noundef %1) local_unnamed_addr #6 {
  %.not.i = icmp eq ptr %0, null
  br i1 %.not.i, label %pmix_bfrops_base_tma_geometry_free.exit, label %.preheader.i

.preheader.i:                                     ; preds = %2
  %.not2.i = icmp eq i64 %1, 0
  br i1 %.not2.i, label %._crit_edge.i, label %.lr.ph.i

._crit_edge.i:                                    ; preds = %pmix_bfrops_base_tma_geometry_destruct.exit.i, %.preheader.i
  tail call void @free(ptr noundef nonnull %0) #44
  br label %pmix_bfrops_base_tma_geometry_free.exit

.lr.ph.i:                                         ; preds = %.preheader.i, %pmix_bfrops_base_tma_geometry_destruct.exit.i
  %.01.i = phi i64 [ %21, %pmix_bfrops_base_tma_geometry_destruct.exit.i ], [ 0, %.preheader.i ]
  %3 = getelementptr inbounds nuw %struct.pmix_geometry, ptr %0, i64 %.01.i
  %4 = getelementptr inbounds nuw i8, ptr %3, i64 8
  %5 = load ptr, ptr %4, align 8, !tbaa !36
  %.not.i.i = icmp eq ptr %5, null
  br i1 %.not.i.i, label %7, label %6

6:                                                ; preds = %.lr.ph.i
  tail call void @free(ptr noundef nonnull %5) #44
  store ptr null, ptr %4, align 8, !tbaa !36
  br label %7

7:                                                ; preds = %6, %.lr.ph.i
  %8 = getelementptr inbounds nuw i8, ptr %3, i64 16
  %9 = load ptr, ptr %8, align 8, !tbaa !39
  %.not14.i.i = icmp eq ptr %9, null
  br i1 %.not14.i.i, label %11, label %10

10:                                               ; preds = %7
  tail call void @free(ptr noundef nonnull %9) #44
  store ptr null, ptr %8, align 8, !tbaa !39
  br label %11

11:                                               ; preds = %10, %7
  %12 = getelementptr inbounds nuw i8, ptr %3, i64 24
  %13 = load ptr, ptr %12, align 8, !tbaa !40
  %.not15.i.i = icmp eq ptr %13, null
  br i1 %.not15.i.i, label %pmix_bfrops_base_tma_geometry_destruct.exit.i, label %.preheader.i.i.i

.preheader.i.i.i:                                 ; preds = %11
  %14 = getelementptr inbounds nuw i8, ptr %3, i64 32
  %15 = load i64, ptr %14, align 8, !tbaa !41
  %.not2.i.i.i = icmp eq i64 %15, 0
  br i1 %.not2.i.i.i, label %pmix_bfrops_base_tma_coord_free.exit.i.i, label %.lr.ph.i.i.i

.lr.ph.i.i.i:                                     ; preds = %.preheader.i.i.i, %pmix_bfrops_base_tma_coord_destruct.exit.i.i.i
  %.01.i.i.i = phi i64 [ %20, %pmix_bfrops_base_tma_coord_destruct.exit.i.i.i ], [ 0, %.preheader.i.i.i ]
  %16 = getelementptr inbounds nuw %struct.pmix_coord, ptr %13, i64 %.01.i.i.i
  store i8 0, ptr %16, align 8, !tbaa !31
  %17 = getelementptr inbounds nuw i8, ptr %16, i64 8
  %18 = load ptr, ptr %17, align 8, !tbaa !35
  %.not8.i.i.i.i = icmp eq ptr %18, null
  br i1 %.not8.i.i.i.i, label %pmix_bfrops_base_tma_coord_destruct.exit.i.i.i, label %19

19:                                               ; preds = %.lr.ph.i.i.i
  tail call void @free(ptr noundef nonnull %18) #44
  tail call void @llvm.memset.p0.i64(ptr noundef nonnull align 8 dereferenceable(16) %17, i8 0, i64 16, i1 false)
  br label %pmix_bfrops_base_tma_coord_destruct.exit.i.i.i

pmix_bfrops_base_tma_coord_destruct.exit.i.i.i:   ; preds = %19, %.lr.ph.i.i.i
  %20 = add nuw i64 %.01.i.i.i, 1
  %exitcond.not.i.i.i = icmp eq i64 %20, %15
  br i1 %exitcond.not.i.i.i, label %pmix_bfrops_base_tma_coord_free.exit.i.i, label %.lr.ph.i.i.i, !llvm.loop !42

pmix_bfrops_base_tma_coord_free.exit.i.i:         ; preds = %pmix_bfrops_base_tma_coord_destruct.exit.i.i.i, %.preheader.i.i.i
  tail call void @free(ptr noundef nonnull %13) #44
  br label %pmix_bfrops_base_tma_geometry_destruct.exit.i

pmix_bfrops_base_tma_geometry_destruct.exit.i:    ; preds = %pmix_bfrops_base_tma_coord_free.exit.i.i, %11
  %21 = add nuw i64 %.01.i, 1
  %exitcond.not.i = icmp eq i64 %21, %1
  br i1 %exitcond.not.i, label %._crit_edge.i, label %.lr.ph.i, !llvm.loop !87

pmix_bfrops_base_tma_geometry_free.exit:          ; preds = %2, %._crit_edge.i
  ret void
}